target datalayout = "e-m:e-p270:32:32-p271:32:32-p272:64:64-i64:64-i128:128-f80:128-n8:16:32:64-S128"
target triple = "x86_64-pc-linux-gnu"

%struct.DdManager = type { %struct.DdNode, ptr, ptr, ptr, ptr, ptr, ptr, ptr, i32, i32, double, double, double, i32, i32, i32, i32, i32, i32, ptr, ptr, %struct.DdSubtable, i32, i32, i32, i32, i32, i32, i32, double, i32, i32, i32, ptr, i64, double, i32, ptr, ptr, ptr, ptr, ptr, ptr, ptr, i32, ptr, ptr, ptr, ptr, ptr, ptr, i32, i32, i32, double, i32, i32, i32, i32, double, double, i32, i32, i32, i32, i32, i32, i32, i32, i32, ptr, ptr, i32, i32, i32, i32, i32, i32, ptr, ptr, ptr, ptr, ptr, ptr, ptr, ptr, i32, i64, i64, i64, i32, i64, i64, double, double, double, double, double, double, i32, ptr, ptr, i64 }
%struct.DdNode = type { i32, i32, ptr, %union.anon, i64 }
%union.anon = type { %struct.DdChildren }
%struct.DdChildren = type { ptr, ptr }
%struct.DdSubtable = type { ptr, i32, i32, i32, i32, i32, i32, i32, i32, i32, i32, i32 }

@s_EncodingVarsLevel = internal global i32 0, align 4
@s_nVarsBest = internal global i32 0, align 4
@s_MultiStart = internal global i32 0, align 4
@s_pbTemp = internal global ptr null, align 8
@s_VarOrderBest = internal global [32 x i32] zeroinitializer, align 16

; Function Attrs: nounwind uwtable
define internal ptr @CreateTheCodes_rec(ptr noundef %0, ptr noundef %1, i32 noundef %2, ptr noundef %3) #0 {
  %5 = alloca ptr, align 8
  %6 = alloca ptr, align 8
  %7 = alloca i32, align 4
  %8 = alloca ptr, align 8
  %9 = alloca ptr, align 8
  %10 = alloca ptr, align 8
  %11 = alloca i32, align 4
  %12 = alloca ptr, align 8
  %13 = alloca ptr, align 8
  %14 = alloca ptr, align 8
  %15 = alloca i32, align 4
  %16 = alloca ptr, align 8
  %17 = alloca ptr, align 8
  %18 = alloca ptr, align 8
  %19 = alloca ptr, align 8
  %20 = alloca ptr, align 8
  %21 = alloca ptr, align 8
  %22 = alloca ptr, align 8
  %23 = alloca ptr, align 8
  store ptr %0, ptr %5, align 8, !tbaa !3
  store ptr %1, ptr %6, align 8, !tbaa !28
  store i32 %2, ptr %7, align 4, !tbaa !10
  store ptr %3, ptr %8, align 8, !tbaa !8
  call void @llvm.lifetime.start.p0(i64 8, ptr %9) #6
  %24 = load i32, ptr %7, align 4, !tbaa !10
  %25 = load i32, ptr @s_nVarsBest, align 4, !tbaa !10
  %26 = icmp eq i32 %24, %25
  br i1 %26, label %27, label %107

27:                                               ; preds = %4
  call void @llvm.lifetime.start.p0(i64 8, ptr %10) #6
  call void @llvm.lifetime.start.p0(i64 4, ptr %11) #6
  %28 = load ptr, ptr %5, align 8, !tbaa !3
  %29 = load ptr, ptr %6, align 8, !tbaa !28
  %30 = load i32, ptr @s_EncodingVarsLevel, align 4, !tbaa !10
  %31 = call ptr @Extra_bddNodePathsUnderCut(ptr noundef %28, ptr noundef %29, i32 noundef %30)
  store ptr %31, ptr %10, align 8, !tbaa !41
  call void @llvm.lifetime.start.p0(i64 8, ptr %12) #6
  call void @llvm.lifetime.start.p0(i64 8, ptr %13) #6
  call void @llvm.lifetime.start.p0(i64 8, ptr %14) #6
  store i32 0, ptr %11, align 4, !tbaa !10
  %32 = load ptr, ptr %10, align 8, !tbaa !41
  %33 = call ptr @st__init_gen(ptr noundef %32)
  store ptr %33, ptr %12, align 8, !tbaa !43
  br label %34

34:                                               ; preds = %66, %51, %27
  %35 = load ptr, ptr %12, align 8, !tbaa !43
  %36 = call i32 @st__gen(ptr noundef %35, ptr noundef %14, ptr noundef %13)
  %37 = icmp ne i32 %36, 0
  br i1 %37, label %40, label %38

38:                                               ; preds = %34
  %39 = load ptr, ptr %12, align 8, !tbaa !43
  call void @st__free_gen(ptr noundef %39)
  br label %40

40:                                               ; preds = %38, %34
  %41 = phi i1 [ true, %34 ], [ false, %38 ]
  br i1 %41, label %42, label %67

42:                                               ; preds = %40
  %43 = load ptr, ptr %14, align 8, !tbaa !28
  %44 = load ptr, ptr %5, align 8, !tbaa !3
  %45 = getelementptr inbounds nuw %struct.DdManager, ptr %44, i32 0, i32 1
  %46 = load ptr, ptr %45, align 8, !tbaa !12
  %47 = ptrtoint ptr %46 to i64
  %48 = xor i64 %47, 1
  %49 = inttoptr i64 %48 to ptr
  %50 = icmp eq ptr %43, %49
  br i1 %50, label %51, label %56

51:                                               ; preds = %42
  %52 = load ptr, ptr %5, align 8, !tbaa !3
  %53 = load ptr, ptr %13, align 8, !tbaa !28
  call void @Cudd_RecursiveDeref(ptr noundef %52, ptr noundef %53)
  %54 = load ptr, ptr %5, align 8, !tbaa !3
  %55 = load ptr, ptr %14, align 8, !tbaa !28
  call void @Cudd_RecursiveDeref(ptr noundef %54, ptr noundef %55)
  br label %34, !llvm.loop !45

56:                                               ; preds = %42
  %57 = load ptr, ptr %13, align 8, !tbaa !28
  %58 = load ptr, ptr @s_pbTemp, align 8, !tbaa !8
  %59 = load i32, ptr %11, align 4, !tbaa !10
  %60 = sext i32 %59 to i64
  %61 = getelementptr inbounds ptr, ptr %58, i64 %60
  store ptr %57, ptr %61, align 8, !tbaa !28
  %62 = load ptr, ptr %5, align 8, !tbaa !3
  %63 = load ptr, ptr %14, align 8, !tbaa !28
  call void @Cudd_RecursiveDeref(ptr noundef %62, ptr noundef %63)
  %64 = load i32, ptr %11, align 4, !tbaa !10
  %65 = add nsw i32 %64, 1
  store i32 %65, ptr %11, align 4, !tbaa !10
  br label %66

66:                                               ; preds = %56
  br label %34, !llvm.loop !45

67:                                               ; preds = %40
  %68 = load ptr, ptr %10, align 8, !tbaa !41
  call void @st__free_table(ptr noundef %68)
  call void @llvm.lifetime.end.p0(i64 8, ptr %14) #6
  call void @llvm.lifetime.end.p0(i64 8, ptr %13) #6
  call void @llvm.lifetime.end.p0(i64 8, ptr %12) #6
  %69 = load i32, ptr @s_MultiStart, align 4, !tbaa !10
  %70 = load i32, ptr %7, align 4, !tbaa !10
  %71 = sub nsw i32 %69, %70
  %72 = icmp eq i32 %71, 0
  br i1 %72, label %73, label %78

73:                                               ; preds = %67
  %74 = load ptr, ptr @s_pbTemp, align 8, !tbaa !8
  %75 = getelementptr inbounds ptr, ptr %74, i64 0
  %76 = load ptr, ptr %75, align 8, !tbaa !28
  store ptr %76, ptr %9, align 8, !tbaa !28
  %77 = load ptr, ptr %9, align 8, !tbaa !28
  call void @Cudd_Ref(ptr noundef %77)
  br label %91

78:                                               ; preds = %67
  %79 = load ptr, ptr %5, align 8, !tbaa !3
  %80 = load ptr, ptr @s_pbTemp, align 8, !tbaa !8
  %81 = load i32, ptr %11, align 4, !tbaa !10
  %82 = load ptr, ptr %8, align 8, !tbaa !8
  %83 = load i32, ptr %7, align 4, !tbaa !10
  %84 = sext i32 %83 to i64
  %85 = getelementptr inbounds ptr, ptr %82, i64 %84
  %86 = load i32, ptr @s_MultiStart, align 4, !tbaa !10
  %87 = load i32, ptr %7, align 4, !tbaa !10
  %88 = sub nsw i32 %86, %87
  %89 = call ptr @Extra_bddEncodingBinary(ptr noundef %79, ptr noundef %80, i32 noundef %81, ptr noundef %85, i32 noundef %88)
  store ptr %89, ptr %9, align 8, !tbaa !28
  %90 = load ptr, ptr %9, align 8, !tbaa !28
  call void @Cudd_Ref(ptr noundef %90)
  br label %91

91:                                               ; preds = %78, %73
  call void @llvm.lifetime.start.p0(i64 4, ptr %15) #6
  store i32 0, ptr %15, align 4, !tbaa !10
  br label %92

92:                                               ; preds = %103, %91
  %93 = load i32, ptr %15, align 4, !tbaa !10
  %94 = load i32, ptr %11, align 4, !tbaa !10
  %95 = icmp slt i32 %93, %94
  br i1 %95, label %96, label %106

96:                                               ; preds = %92
  %97 = load ptr, ptr %5, align 8, !tbaa !3
  %98 = load ptr, ptr @s_pbTemp, align 8, !tbaa !8
  %99 = load i32, ptr %15, align 4, !tbaa !10
  %100 = sext i32 %99 to i64
  %101 = getelementptr inbounds ptr, ptr %98, i64 %100
  %102 = load ptr, ptr %101, align 8, !tbaa !28
  call void @Cudd_RecursiveDeref(ptr noundef %97, ptr noundef %102)
  br label %103

103:                                              ; preds = %96
  %104 = load i32, ptr %15, align 4, !tbaa !10
  %105 = add nsw i32 %104, 1
  store i32 %105, ptr %15, align 4, !tbaa !10
  br label %92, !llvm.loop !46

106:                                              ; preds = %92
  call void @llvm.lifetime.end.p0(i64 4, ptr %15) #6
  call void @llvm.lifetime.end.p0(i64 4, ptr %11) #6
  call void @llvm.lifetime.end.p0(i64 8, ptr %10) #6
  br label %200

107:                                              ; preds = %4
  call void @llvm.lifetime.start.p0(i64 8, ptr %16) #6
  call void @llvm.lifetime.start.p0(i64 8, ptr %17) #6
  call void @llvm.lifetime.start.p0(i64 8, ptr %18) #6
  call void @llvm.lifetime.start.p0(i64 8, ptr %19) #6
  call void @llvm.lifetime.start.p0(i64 8, ptr %20) #6
  call void @llvm.lifetime.start.p0(i64 8, ptr %21) #6
  call void @llvm.lifetime.start.p0(i64 8, ptr %22) #6
  call void @llvm.lifetime.start.p0(i64 8, ptr %23) #6
  %108 = load ptr, ptr %5, align 8, !tbaa !3
  %109 = getelementptr inbounds nuw %struct.DdManager, ptr %108, i32 0, i32 41
  %110 = load ptr, ptr %109, align 8, !tbaa !35
  %111 = load i32, ptr %7, align 4, !tbaa !10
  %112 = sext i32 %111 to i64
  %113 = getelementptr inbounds [32 x i32], ptr @s_VarOrderBest, i64 0, i64 %112
  %114 = load i32, ptr %113, align 4, !tbaa !10
  %115 = sext i32 %114 to i64
  %116 = getelementptr inbounds ptr, ptr %110, i64 %115
  %117 = load ptr, ptr %116, align 8, !tbaa !28
  store ptr %117, ptr %23, align 8, !tbaa !28
  %118 = load ptr, ptr %5, align 8, !tbaa !3
  %119 = load ptr, ptr %6, align 8, !tbaa !28
  %120 = load ptr, ptr %23, align 8, !tbaa !28
  %121 = ptrtoint ptr %120 to i64
  %122 = xor i64 %121, 1
  %123 = inttoptr i64 %122 to ptr
  %124 = call ptr @Cudd_Cofactor(ptr noundef %118, ptr noundef %119, ptr noundef %123)
  store ptr %124, ptr %16, align 8, !tbaa !28
  %125 = load ptr, ptr %16, align 8, !tbaa !28
  call void @Cudd_Ref(ptr noundef %125)
  %126 = load ptr, ptr %5, align 8, !tbaa !3
  %127 = load ptr, ptr %6, align 8, !tbaa !28
  %128 = load ptr, ptr %23, align 8, !tbaa !28
  %129 = call ptr @Cudd_Cofactor(ptr noundef %126, ptr noundef %127, ptr noundef %128)
  store ptr %129, ptr %17, align 8, !tbaa !28
  %130 = load ptr, ptr %17, align 8, !tbaa !28
  call void @Cudd_Ref(ptr noundef %130)
  %131 = load ptr, ptr %5, align 8, !tbaa !3
  %132 = load ptr, ptr %16, align 8, !tbaa !28
  %133 = load i32, ptr %7, align 4, !tbaa !10
  %134 = add nsw i32 %133, 1
  %135 = load ptr, ptr %8, align 8, !tbaa !8
  %136 = call ptr @CreateTheCodes_rec(ptr noundef %131, ptr noundef %132, i32 noundef %134, ptr noundef %135)
  store ptr %136, ptr %18, align 8, !tbaa !28
  %137 = load ptr, ptr %18, align 8, !tbaa !28
  call void @Cudd_Ref(ptr noundef %137)
  %138 = load ptr, ptr %5, align 8, !tbaa !3
  %139 = load ptr, ptr %17, align 8, !tbaa !28
  %140 = load i32, ptr %7, align 4, !tbaa !10
  %141 = add nsw i32 %140, 1
  %142 = load ptr, ptr %8, align 8, !tbaa !8
  %143 = call ptr @CreateTheCodes_rec(ptr noundef %138, ptr noundef %139, i32 noundef %141, ptr noundef %142)
  store ptr %143, ptr %19, align 8, !tbaa !28
  %144 = load ptr, ptr %19, align 8, !tbaa !28
  call void @Cudd_Ref(ptr noundef %144)
  %145 = load ptr, ptr %5, align 8, !tbaa !3
  %146 = load ptr, ptr %16, align 8, !tbaa !28
  call void @Cudd_RecursiveDeref(ptr noundef %145, ptr noundef %146)
  %147 = load ptr, ptr %5, align 8, !tbaa !3
  %148 = load ptr, ptr %17, align 8, !tbaa !28
  call void @Cudd_RecursiveDeref(ptr noundef %147, ptr noundef %148)
  %149 = load ptr, ptr %5, align 8, !tbaa !3
  %150 = load ptr, ptr %23, align 8, !tbaa !28
  %151 = ptrtoint ptr %150 to i64
  %152 = xor i64 %151, 1
  %153 = inttoptr i64 %152 to ptr
  %154 = load ptr, ptr %8, align 8, !tbaa !8
  %155 = load i32, ptr %7, align 4, !tbaa !10
  %156 = sext i32 %155 to i64
  %157 = getelementptr inbounds ptr, ptr %154, i64 %156
  %158 = load ptr, ptr %157, align 8, !tbaa !28
  %159 = ptrtoint ptr %158 to i64
  %160 = xor i64 %159, 1
  %161 = inttoptr i64 %160 to ptr
  %162 = call ptr @Cudd_bddAnd(ptr noundef %149, ptr noundef %153, ptr noundef %161)
  store ptr %162, ptr %20, align 8, !tbaa !28
  %163 = load ptr, ptr %20, align 8, !tbaa !28
  call void @Cudd_Ref(ptr noundef %163)
  %164 = load ptr, ptr %5, align 8, !tbaa !3
  %165 = load ptr, ptr %23, align 8, !tbaa !28
  %166 = load ptr, ptr %8, align 8, !tbaa !8
  %167 = load i32, ptr %7, align 4, !tbaa !10
  %168 = sext i32 %167 to i64
  %169 = getelementptr inbounds ptr, ptr %166, i64 %168
  %170 = load ptr, ptr %169, align 8, !tbaa !28
  %171 = call ptr @Cudd_bddAnd(ptr noundef %164, ptr noundef %165, ptr noundef %170)
  store ptr %171, ptr %21, align 8, !tbaa !28
  %172 = load ptr, ptr %21, align 8, !tbaa !28
  call void @Cudd_Ref(ptr noundef %172)
  %173 = load ptr, ptr %5, align 8, !tbaa !3
  %174 = load ptr, ptr %20, align 8, !tbaa !28
  store ptr %174, ptr %22, align 8, !tbaa !28
  %175 = load ptr, ptr %18, align 8, !tbaa !28
  %176 = call ptr @Cudd_bddAnd(ptr noundef %173, ptr noundef %174, ptr noundef %175)
  store ptr %176, ptr %20, align 8, !tbaa !28
  %177 = load ptr, ptr %20, align 8, !tbaa !28
  call void @Cudd_Ref(ptr noundef %177)
  %178 = load ptr, ptr %5, align 8, !tbaa !3
  %179 = load ptr, ptr %22, align 8, !tbaa !28
  call void @Cudd_RecursiveDeref(ptr noundef %178, ptr noundef %179)
  %180 = load ptr, ptr %5, align 8, !tbaa !3
  %181 = load ptr, ptr %18, align 8, !tbaa !28
  call void @Cudd_RecursiveDeref(ptr noundef %180, ptr noundef %181)
  %182 = load ptr, ptr %5, align 8, !tbaa !3
  %183 = load ptr, ptr %21, align 8, !tbaa !28
  store ptr %183, ptr %22, align 8, !tbaa !28
  %184 = load ptr, ptr %19, align 8, !tbaa !28
  %185 = call ptr @Cudd_bddAnd(ptr noundef %182, ptr noundef %183, ptr noundef %184)
  store ptr %185, ptr %21, align 8, !tbaa !28
  %186 = load ptr, ptr %21, align 8, !tbaa !28
  call void @Cudd_Ref(ptr noundef %186)
  %187 = load ptr, ptr %5, align 8, !tbaa !3
  %188 = load ptr, ptr %22, align 8, !tbaa !28
  call void @Cudd_RecursiveDeref(ptr noundef %187, ptr noundef %188)
  %189 = load ptr, ptr %5, align 8, !tbaa !3
  %190 = load ptr, ptr %19, align 8, !tbaa !28
  call void @Cudd_RecursiveDeref(ptr noundef %189, ptr noundef %190)
  %191 = load ptr, ptr %5, align 8, !tbaa !3
  %192 = load ptr, ptr %20, align 8, !tbaa !28
  %193 = load ptr, ptr %21, align 8, !tbaa !28
  %194 = call ptr @Cudd_bddOr(ptr noundef %191, ptr noundef %192, ptr noundef %193)
  store ptr %194, ptr %9, align 8, !tbaa !28
  %195 = load ptr, ptr %9, align 8, !tbaa !28
  call void @Cudd_Ref(ptr noundef %195)
  %196 = load ptr, ptr %5, align 8, !tbaa !3
  %197 = load ptr, ptr %20, align 8, !tbaa !28
  call void @Cudd_RecursiveDeref(ptr noundef %196, ptr noundef %197)
  %198 = load ptr, ptr %5, align 8, !tbaa !3
  %199 = load ptr, ptr %21, align 8, !tbaa !28
  call void @Cudd_RecursiveDeref(ptr noundef %198, ptr noundef %199)
  call void @llvm.lifetime.end.p0(i64 8, ptr %23) #6
  call void @llvm.lifetime.end.p0(i64 8, ptr %22) #6
  call void @llvm.lifetime.end.p0(i64 8, ptr %21) #6
  call void @llvm.lifetime.end.p0(i64 8, ptr %20) #6
  call void @llvm.lifetime.end.p0(i64 8, ptr %19) #6
  call void @llvm.lifetime.end.p0(i64 8, ptr %18) #6
  call void @llvm.lifetime.end.p0(i64 8, ptr %17) #6
  call void @llvm.lifetime.end.p0(i64 8, ptr %16) #6
  br label %200

200:                                              ; preds = %107, %106
  %201 = load ptr, ptr %9, align 8, !tbaa !28
  call void @Cudd_Deref(ptr noundef %201)
  %202 = load ptr, ptr %9, align 8, !tbaa !28
  call void @llvm.lifetime.end.p0(i64 8, ptr %9) #6
  ret ptr %202
}