; Function Attrs: nounwind uwtable
define internal fastcc noundef ptr @CreateTheCodes_rec(ptr noundef %0, ptr noundef %1, i32 noundef %2, ptr noundef %3) unnamed_addr #0 {
  %5 = alloca ptr, align 8
  %6 = alloca ptr, align 8
  %7 = load i32, ptr @s_nVarsBest, align 4, !tbaa !29
  %8 = icmp eq i32 %2, %7
  br i1 %8, label %9, label %47

9:                                                ; preds = %4
  %10 = load i32, ptr @s_EncodingVarsLevel, align 4, !tbaa !29
  %11 = tail call ptr @Extra_bddNodePathsUnderCut(ptr noundef %0, ptr noundef %1, i32 noundef %10)
  call void @llvm.lifetime.start.p0(i64 8, ptr nonnull %5) #11
  call void @llvm.lifetime.start.p0(i64 8, ptr nonnull %6) #11
  %12 = tail call ptr @st__init_gen(ptr noundef %11) #11
  %13 = call i32 @st__gen(ptr noundef %12, ptr noundef nonnull %6, ptr noundef nonnull %5) #11
  %.not9092 = icmp eq i32 %13, 0
  br i1 %.not9092, label %.outer._crit_edge, label %.critedge.lr.ph.lr.ph

.critedge.lr.ph.lr.ph:                            ; preds = %9
  %14 = getelementptr inbounds nuw i8, ptr %0, i64 40
  br label %.critedge.lr.ph

.critedge.lr.ph:                                  ; preds = %.critedge.lr.ph.lr.ph, %.outer
  %indvars.iv = phi i64 [ 0, %.critedge.lr.ph.lr.ph ], [ %indvars.iv.next, %.outer ]
  br label %.critedge

.outer._crit_edge.loopexit:                       ; preds = %26
  %15 = trunc nuw nsw i64 %indvars.iv to i32
  br label %.outer._crit_edge

.outer._crit_edge.loopexit97:                     ; preds = %.outer
  %16 = trunc nuw i64 %indvars.iv.next to i32
  br label %.outer._crit_edge

.outer._crit_edge:                                ; preds = %.outer._crit_edge.loopexit97, %.outer._crit_edge.loopexit, %9
  %.085.ph.lcssa = phi i32 [ 0, %9 ], [ %15, %.outer._crit_edge.loopexit ], [ %16, %.outer._crit_edge.loopexit97 ]
  call void @st__free_gen(ptr noundef %12) #11
  call void @st__free_table(ptr noundef %11) #11
  call void @llvm.lifetime.end.p0(i64 8, ptr nonnull %6) #11
  call void @llvm.lifetime.end.p0(i64 8, ptr nonnull %5) #11
  %17 = load i32, ptr @s_MultiStart, align 4, !tbaa !29
  %18 = icmp eq i32 %17, %2
  br i1 %18, label %33, label %36

.critedge:                                        ; preds = %.critedge.lr.ph, %26
  %19 = load ptr, ptr %6, align 8, !tbaa !24
  %20 = load ptr, ptr %14, align 8, !tbaa !3
  %21 = ptrtoint ptr %20 to i64
  %22 = xor i64 %21, 1
  %23 = inttoptr i64 %22 to ptr
  %24 = icmp eq ptr %19, %23
  %25 = load ptr, ptr %5, align 8, !tbaa !24
  br i1 %24, label %26, label %.outer

26:                                               ; preds = %.critedge
  call void @Cudd_RecursiveDeref(ptr noundef nonnull %0, ptr noundef %25) #11
  %27 = load ptr, ptr %6, align 8, !tbaa !24
  call void @Cudd_RecursiveDeref(ptr noundef nonnull %0, ptr noundef %27) #11
  %28 = call i32 @st__gen(ptr noundef %12, ptr noundef nonnull %6, ptr noundef nonnull %5) #11
  %.not = icmp eq i32 %28, 0
  br i1 %.not, label %.outer._crit_edge.loopexit, label %.critedge, !llvm.loop !36

.outer:                                           ; preds = %.critedge
  %29 = load ptr, ptr @s_pbTemp, align 8, !tbaa !30
  %30 = getelementptr inbounds nuw ptr, ptr %29, i64 %indvars.iv
  store ptr %25, ptr %30, align 8, !tbaa !24
  %31 = load ptr, ptr %6, align 8, !tbaa !24
  call void @Cudd_RecursiveDeref(ptr noundef nonnull %0, ptr noundef %31) #11
  %indvars.iv.next = add nuw nsw i64 %indvars.iv, 1
  %32 = call i32 @st__gen(ptr noundef %12, ptr noundef nonnull %6, ptr noundef nonnull %5) #11
  %.not90 = icmp eq i32 %32, 0
  br i1 %.not90, label %.outer._crit_edge.loopexit97, label %.critedge.lr.ph, !llvm.loop !36

33:                                               ; preds = %.outer._crit_edge
  %34 = load ptr, ptr @s_pbTemp, align 8, !tbaa !30
  %35 = load ptr, ptr %34, align 8, !tbaa !24
  br label %42

36:                                               ; preds = %.outer._crit_edge
  %37 = sub nsw i32 %17, %2
  %38 = load ptr, ptr @s_pbTemp, align 8, !tbaa !30
  %39 = zext nneg i32 %2 to i64
  %40 = getelementptr inbounds nuw ptr, ptr %3, i64 %39
  %41 = call ptr @Extra_bddEncodingBinary(ptr noundef %0, ptr noundef %38, i32 noundef %.085.ph.lcssa, ptr noundef %40, i32 noundef %37)
  br label %42

42:                                               ; preds = %36, %33
  %.sink = phi ptr [ %41, %36 ], [ %35, %33 ]
  call void @Cudd_Ref(ptr noundef %.sink) #11
  %43 = icmp sgt i32 %.085.ph.lcssa, 0
  br i1 %43, label %.lr.ph.preheader, label %.loopexit

.lr.ph.preheader:                                 ; preds = %42
  %wide.trip.count = zext nneg i32 %.085.ph.lcssa to i64
  br label %.lr.ph

.lr.ph:                                           ; preds = %.lr.ph.preheader, %.lr.ph
  %indvars.iv100 = phi i64 [ 0, %.lr.ph.preheader ], [ %indvars.iv.next101, %.lr.ph ]
  %44 = load ptr, ptr @s_pbTemp, align 8, !tbaa !30
  %45 = getelementptr inbounds nuw ptr, ptr %44, i64 %indvars.iv100
  %46 = load ptr, ptr %45, align 8, !tbaa !24
  call void @Cudd_RecursiveDeref(ptr noundef %0, ptr noundef %46) #11
  %indvars.iv.next101 = add nuw nsw i64 %indvars.iv100, 1
  %exitcond.not = icmp eq i64 %indvars.iv.next101, %wide.trip.count
  br i1 %exitcond.not, label %.loopexit, label %.lr.ph, !llvm.loop !37

47:                                               ; preds = %4
  %48 = getelementptr inbounds nuw i8, ptr %0, i64 344
  %49 = load ptr, ptr %48, align 8, !tbaa !31
  %50 = sext i32 %2 to i64
  %51 = getelementptr inbounds [32 x i32], ptr @s_VarOrderBest, i64 0, i64 %50
  %52 = load i32, ptr %51, align 4, !tbaa !29
  %53 = sext i32 %52 to i64
  %54 = getelementptr inbounds ptr, ptr %49, i64 %53
  %55 = load ptr, ptr %54, align 8, !tbaa !24
  %56 = ptrtoint ptr %55 to i64
  %57 = xor i64 %56, 1
  %58 = inttoptr i64 %57 to ptr
  %59 = tail call ptr @Cudd_Cofactor(ptr noundef %0, ptr noundef %1, ptr noundef %58) #11
  tail call void @Cudd_Ref(ptr noundef %59) #11
  %60 = tail call ptr @Cudd_Cofactor(ptr noundef %0, ptr noundef %1, ptr noundef %55) #11
  tail call void @Cudd_Ref(ptr noundef %60) #11
  %61 = add nsw i32 %2, 1
  %62 = tail call fastcc ptr @CreateTheCodes_rec(ptr noundef %0, ptr noundef %59, i32 noundef %61, ptr noundef %3)
  tail call void @Cudd_Ref(ptr noundef %62) #11
  %63 = tail call fastcc ptr @CreateTheCodes_rec(ptr noundef %0, ptr noundef %60, i32 noundef %61, ptr noundef %3)
  tail call void @Cudd_Ref(ptr noundef %63) #11
  tail call void @Cudd_RecursiveDeref(ptr noundef %0, ptr noundef %59) #11
  tail call void @Cudd_RecursiveDeref(ptr noundef %0, ptr noundef %60) #11
  %64 = getelementptr inbounds ptr, ptr %3, i64 %50
  %65 = load ptr, ptr %64, align 8, !tbaa !24
  %66 = ptrtoint ptr %65 to i64
  %67 = xor i64 %66, 1
  %68 = inttoptr i64 %67 to ptr
  %69 = tail call ptr @Cudd_bddAnd(ptr noundef %0, ptr noundef %58, ptr noundef %68) #11
  tail call void @Cudd_Ref(ptr noundef %69) #11
  %70 = load ptr, ptr %64, align 8, !tbaa !24
  %71 = tail call ptr @Cudd_bddAnd(ptr noundef %0, ptr noundef %55, ptr noundef %70) #11
  tail call void @Cudd_Ref(ptr noundef %71) #11
  %72 = tail call ptr @Cudd_bddAnd(ptr noundef %0, ptr noundef %69, ptr noundef %62) #11
  tail call void @Cudd_Ref(ptr noundef %72) #11
  tail call void @Cudd_RecursiveDeref(ptr noundef %0, ptr noundef %69) #11
  tail call void @Cudd_RecursiveDeref(ptr noundef %0, ptr noundef %62) #11
  %73 = tail call ptr @Cudd_bddAnd(ptr noundef %0, ptr noundef %71, ptr noundef %63) #11
  tail call void @Cudd_Ref(ptr noundef %73) #11
  tail call void @Cudd_RecursiveDeref(ptr noundef %0, ptr noundef %71) #11
  tail call void @Cudd_RecursiveDeref(ptr noundef %0, ptr noundef %63) #11
  %74 = tail call ptr @Cudd_bddOr(ptr noundef %0, ptr noundef %72, ptr noundef %73) #11
  tail call void @Cudd_Ref(ptr noundef %74) #11
  tail call void @Cudd_RecursiveDeref(ptr noundef %0, ptr noundef %72) #11
  tail call void @Cudd_RecursiveDeref(ptr noundef %0, ptr noundef %73) #11
  br label %.loopexit

.loopexit:                                        ; preds = %.lr.ph, %42, %47
  %.1 = phi ptr [ %74, %47 ], [ %.sink, %42 ], [ %.sink, %.lr.ph ]
  call void @Cudd_Deref(ptr noundef %.1) #11
  ret ptr %.1
}